target datalayout = "e-m:e-p270:32:32-p271:32:32-p272:64:64-i64:64-i128:128-f80:128-n8:16:32:64-S128"
target triple = "x86_64-pc-linux-gnu"

; Function Attrs: mustprogress nounwind uwtable
define void @_ZN5faiss26fvec_inner_product_batch_4EPKfS1_S1_S1_S1_mRfS2_S2_S2_(ptr noalias noundef %0, ptr noalias noundef %1, ptr noalias noundef %2, ptr noalias noundef %3, ptr noalias noundef %4, i64 noundef %5, ptr noundef nonnull align 4 dereferenceable(4) %6, ptr noundef nonnull align 4 dereferenceable(4) %7, ptr noundef nonnull align 4 dereferenceable(4) %8, ptr noundef nonnull align 4 dereferenceable(4) %9) #0 {
  %11 = alloca ptr, align 8
  %12 = alloca ptr, align 8
  %13 = alloca ptr, align 8
  %14 = alloca ptr, align 8
  %15 = alloca ptr, align 8
  %16 = alloca i64, align 8
  %17 = alloca ptr, align 8
  %18 = alloca ptr, align 8
  %19 = alloca ptr, align 8
  %20 = alloca ptr, align 8
  %21 = alloca float, align 4
  %22 = alloca float, align 4
  %23 = alloca float, align 4
  %24 = alloca float, align 4
  %25 = alloca i64, align 8
  store ptr %0, ptr %11, align 8, !tbaa !4
  store ptr %1, ptr %12, align 8, !tbaa !4
  store ptr %2, ptr %13, align 8, !tbaa !4
  store ptr %3, ptr %14, align 8, !tbaa !4
  store ptr %4, ptr %15, align 8, !tbaa !4
  store i64 %5, ptr %16, align 8, !tbaa !9
  store ptr %6, ptr %17, align 8, !tbaa !4
  store ptr %7, ptr %18, align 8, !tbaa !4
  store ptr %8, ptr %19, align 8, !tbaa !4
  store ptr %9, ptr %20, align 8, !tbaa !4
  call void @llvm.lifetime.start.p0(i64 4, ptr %21) #13
  store float 0.000000e+00, ptr %21, align 4, !tbaa !11
  call void @llvm.lifetime.start.p0(i64 4, ptr %22) #13
  store float 0.000000e+00, ptr %22, align 4, !tbaa !11
  call void @llvm.lifetime.start.p0(i64 4, ptr %23) #13
  store float 0.000000e+00, ptr %23, align 4, !tbaa !11
  call void @llvm.lifetime.start.p0(i64 4, ptr %24) #13
  store float 0.000000e+00, ptr %24, align 4, !tbaa !11
  call void @llvm.lifetime.start.p0(i64 8, ptr %25) #13
  store i64 0, ptr %25, align 8, !tbaa !9
  br label %26

26:                                               ; preds = %76, %10
  %27 = load i64, ptr %25, align 8, !tbaa !9
  %28 = load i64, ptr %16, align 8, !tbaa !9
  %29 = icmp ult i64 %27, %28
  br i1 %29, label %31, label %30

30:                                               ; preds = %26
  call void @llvm.lifetime.end.p0(i64 8, ptr %25) #13
  br label %79

31:                                               ; preds = %26
  %32 = load ptr, ptr %11, align 8, !tbaa !4
  %33 = load i64, ptr %25, align 8, !tbaa !9
  %34 = getelementptr inbounds nuw float, ptr %32, i64 %33
  %35 = load float, ptr %34, align 4, !tbaa !11
  %36 = load ptr, ptr %12, align 8, !tbaa !4
  %37 = load i64, ptr %25, align 8, !tbaa !9
  %38 = getelementptr inbounds nuw float, ptr %36, i64 %37
  %39 = load float, ptr %38, align 4, !tbaa !11
  %40 = fmul fast float %35, %39
  %41 = load float, ptr %21, align 4, !tbaa !11
  %42 = fadd fast float %41, %40
  store float %42, ptr %21, align 4, !tbaa !11
  %43 = load ptr, ptr %11, align 8, !tbaa !4
  %44 = load i64, ptr %25, align 8, !tbaa !9
  %45 = getelementptr inbounds nuw float, ptr %43, i64 %44
  %46 = load float, ptr %45, align 4, !tbaa !11
  %47 = load ptr, ptr %13, align 8, !tbaa !4
  %48 = load i64, ptr %25, align 8, !tbaa !9
  %49 = getelementptr inbounds nuw float, ptr %47, i64 %48
  %50 = load float, ptr %49, align 4, !tbaa !11
  %51 = fmul fast float %46, %50
  %52 = load float, ptr %22, align 4, !tbaa !11
  %53 = fadd fast float %52, %51
  store float %53, ptr %22, align 4, !tbaa !11
  %54 = load ptr, ptr %11, align 8, !tbaa !4
  %55 = load i64, ptr %25, align 8, !tbaa !9
  %56 = getelementptr inbounds nuw float, ptr %54, i64 %55
  %57 = load float, ptr %56, align 4, !tbaa !11
  %58 = load ptr, ptr %14, align 8, !tbaa !4
  %59 = load i64, ptr %25, align 8, !tbaa !9
  %60 = getelementptr inbounds nuw float, ptr %58, i64 %59
  %61 = load float, ptr %60, align 4, !tbaa !11
  %62 = fmul fast float %57, %61
  %63 = load float, ptr %23, align 4, !tbaa !11
  %64 = fadd fast float %63, %62
  store float %64, ptr %23, align 4, !tbaa !11
  %65 = load ptr, ptr %11, align 8, !tbaa !4
  %66 = load i64, ptr %25, align 8, !tbaa !9
  %67 = getelementptr inbounds nuw float, ptr %65, i64 %66
  %68 = load float, ptr %67, align 4, !tbaa !11
  %69 = load ptr, ptr %15, align 8, !tbaa !4
  %70 = load i64, ptr %25, align 8, !tbaa !9
  %71 = getelementptr inbounds nuw float, ptr %69, i64 %70
  %72 = load float, ptr %71, align 4, !tbaa !11
  %73 = fmul fast float %68, %72
  %74 = load float, ptr %24, align 4, !tbaa !11
  %75 = fadd fast float %74, %73
  store float %75, ptr %24, align 4, !tbaa !11
  br label %76

76:                                               ; preds = %31
  %77 = load i64, ptr %25, align 8, !tbaa !9
  %78 = add i64 %77, 1
  store i64 %78, ptr %25, align 8, !tbaa !9
  br label %26, !llvm.loop !27

79:                                               ; preds = %30
  %80 = load float, ptr %21, align 4, !tbaa !11
  %81 = load ptr, ptr %17, align 8, !tbaa !4
  store float %80, ptr %81, align 4, !tbaa !11
  %82 = load float, ptr %22, align 4, !tbaa !11
  %83 = load ptr, ptr %18, align 8, !tbaa !4
  store float %82, ptr %83, align 4, !tbaa !11
  %84 = load float, ptr %23, align 4, !tbaa !11
  %85 = load ptr, ptr %19, align 8, !tbaa !4
  store float %84, ptr %85, align 4, !tbaa !11
  %86 = load float, ptr %24, align 4, !tbaa !11
  %87 = load ptr, ptr %20, align 8, !tbaa !4
  store float %86, ptr %87, align 4, !tbaa !11
  call void @llvm.lifetime.end.p0(i64 4, ptr %24) #13
  call void @llvm.lifetime.end.p0(i64 4, ptr %23) #13
  call void @llvm.lifetime.end.p0(i64 4, ptr %22) #13
  call void @llvm.lifetime.end.p0(i64 4, ptr %21) #13
  ret void
}