; Function Attrs: mustprogress nofree norecurse nosync nounwind memory(argmem: readwrite) uwtable
define void @_ZN5faiss26fvec_inner_product_batch_4EPKfS1_S1_S1_S1_mRfS2_S2_S2_(ptr noalias noundef readonly captures(none) %0, ptr noalias noundef readonly captures(none) %1, ptr noalias noundef readonly captures(none) %2, ptr noalias noundef readonly captures(none) %3, ptr noalias noundef readonly captures(none) %4, i64 noundef %5, ptr noundef nonnull writeonly align 4 captures(none) dereferenceable(4) %6, ptr noundef nonnull writeonly align 4 captures(none) dereferenceable(4) %7, ptr noundef nonnull writeonly align 4 captures(none) dereferenceable(4) %8, ptr noundef nonnull writeonly align 4 captures(none) dereferenceable(4) %9) local_unnamed_addr #2 {
  %.not = icmp eq i64 %5, 0
  br i1 %.not, label %._crit_edge, label %.lr.ph.preheader

.lr.ph.preheader:                                 ; preds = %10
  %min.iters.check = icmp ult i64 %5, 8
  br i1 %min.iters.check, label %.lr.ph.preheader73, label %vector.ph

vector.ph:                                        ; preds = %.lr.ph.preheader
  %n.vec = and i64 %5, -8
  br label %vector.body

vector.body:                                      ; preds = %vector.body, %vector.ph
  %index = phi i64 [ 0, %vector.ph ], [ %index.next, %vector.body ]
  %vec.phi = phi <4 x float> [ zeroinitializer, %vector.ph ], [ %35, %vector.body ]
  %vec.phi51 = phi <4 x float> [ zeroinitializer, %vector.ph ], [ %36, %vector.body ]
  %vec.phi52 = phi <4 x float> [ zeroinitializer, %vector.ph ], [ %29, %vector.body ]
  %vec.phi53 = phi <4 x float> [ zeroinitializer, %vector.ph ], [ %30, %vector.body ]
  %vec.phi54 = phi <4 x float> [ zeroinitializer, %vector.ph ], [ %23, %vector.body ]
  %vec.phi55 = phi <4 x float> [ zeroinitializer, %vector.ph ], [ %24, %vector.body ]
  %vec.phi56 = phi <4 x float> [ zeroinitializer, %vector.ph ], [ %17, %vector.body ]
  %vec.phi57 = phi <4 x float> [ zeroinitializer, %vector.ph ], [ %18, %vector.body ]
  %11 = getelementptr inbounds nuw float, ptr %0, i64 %index
  %12 = getelementptr inbounds nuw i8, ptr %11, i64 16
  %wide.load = load <4 x float>, ptr %11, align 4, !tbaa !4
  %wide.load58 = load <4 x float>, ptr %12, align 4, !tbaa !4
  %13 = getelementptr inbounds nuw float, ptr %1, i64 %index
  %14 = getelementptr inbounds nuw i8, ptr %13, i64 16
  %wide.load59 = load <4 x float>, ptr %13, align 4, !tbaa !4
  %wide.load60 = load <4 x float>, ptr %14, align 4, !tbaa !4
  %15 = fmul fast <4 x float> %wide.load59, %wide.load
  %16 = fmul fast <4 x float> %wide.load60, %wide.load58
  %17 = fadd fast <4 x float> %15, %vec.phi56
  %18 = fadd fast <4 x float> %16, %vec.phi57
  %19 = getelementptr inbounds nuw float, ptr %2, i64 %index
  %20 = getelementptr inbounds nuw i8, ptr %19, i64 16
  %wide.load61 = load <4 x float>, ptr %19, align 4, !tbaa !4
  %wide.load62 = load <4 x float>, ptr %20, align 4, !tbaa !4
  %21 = fmul fast <4 x float> %wide.load61, %wide.load
  %22 = fmul fast <4 x float> %wide.load62, %wide.load58
  %23 = fadd fast <4 x float> %21, %vec.phi54
  %24 = fadd fast <4 x float> %22, %vec.phi55
  %25 = getelementptr inbounds nuw float, ptr %3, i64 %index
  %26 = getelementptr inbounds nuw i8, ptr %25, i64 16
  %wide.load63 = load <4 x float>, ptr %25, align 4, !tbaa !4
  %wide.load64 = load <4 x float>, ptr %26, align 4, !tbaa !4
  %27 = fmul fast <4 x float> %wide.load63, %wide.load
  %28 = fmul fast <4 x float> %wide.load64, %wide.load58
  %29 = fadd fast <4 x float> %27, %vec.phi52
  %30 = fadd fast <4 x float> %28, %vec.phi53
  %31 = getelementptr inbounds nuw float, ptr %4, i64 %index
  %32 = getelementptr inbounds nuw i8, ptr %31, i64 16
  %wide.load65 = load <4 x float>, ptr %31, align 4, !tbaa !4
  %wide.load66 = load <4 x float>, ptr %32, align 4, !tbaa !4
  %33 = fmul fast <4 x float> %wide.load65, %wide.load
  %34 = fmul fast <4 x float> %wide.load66, %wide.load58
  %35 = fadd fast <4 x float> %33, %vec.phi
  %36 = fadd fast <4 x float> %34, %vec.phi51
  %index.next = add nuw i64 %index, 8
  %37 = icmp eq i64 %index.next, %n.vec
  br i1 %37, label %middle.block, label %vector.body, !llvm.loop !34

middle.block:                                     ; preds = %vector.body
  %bin.rdx = fadd fast <4 x float> %36, %35
  %38 = tail call fast float @llvm.vector.reduce.fadd.v4f32(float 0.000000e+00, <4 x float> %bin.rdx)
  %bin.rdx67 = fadd fast <4 x float> %30, %29
  %39 = tail call fast float @llvm.vector.reduce.fadd.v4f32(float 0.000000e+00, <4 x float> %bin.rdx67)
  %bin.rdx68 = fadd fast <4 x float> %24, %23
  %40 = tail call fast float @llvm.vector.reduce.fadd.v4f32(float 0.000000e+00, <4 x float> %bin.rdx68)
  %bin.rdx69 = fadd fast <4 x float> %18, %17
  %41 = tail call fast float @llvm.vector.reduce.fadd.v4f32(float 0.000000e+00, <4 x float> %bin.rdx69)
  %cmp.n = icmp eq i64 %5, %n.vec
  br i1 %cmp.n, label %._crit_edge, label %.lr.ph.preheader73

.lr.ph.preheader73:                               ; preds = %.lr.ph.preheader, %middle.block
  %.038.ph = phi i64 [ 0, %.lr.ph.preheader ], [ %n.vec, %middle.block ]
  %.03037.ph = phi float [ 0.000000e+00, %.lr.ph.preheader ], [ %38, %middle.block ]
  %.03136.ph = phi float [ 0.000000e+00, %.lr.ph.preheader ], [ %39, %middle.block ]
  %.03235.ph = phi float [ 0.000000e+00, %.lr.ph.preheader ], [ %40, %middle.block ]
  %.03334.ph = phi float [ 0.000000e+00, %.lr.ph.preheader ], [ %41, %middle.block ]
  br label %.lr.ph

._crit_edge:                                      ; preds = %.lr.ph, %middle.block, %10
  %.033.lcssa = phi float [ 0.000000e+00, %10 ], [ %41, %middle.block ], [ %47, %.lr.ph ]
  %.032.lcssa = phi float [ 0.000000e+00, %10 ], [ %40, %middle.block ], [ %51, %.lr.ph ]
  %.031.lcssa = phi float [ 0.000000e+00, %10 ], [ %39, %middle.block ], [ %55, %.lr.ph ]
  %.030.lcssa = phi float [ 0.000000e+00, %10 ], [ %38, %middle.block ], [ %59, %.lr.ph ]
  store float %.033.lcssa, ptr %6, align 4, !tbaa !4
  store float %.032.lcssa, ptr %7, align 4, !tbaa !4
  store float %.031.lcssa, ptr %8, align 4, !tbaa !4
  store float %.030.lcssa, ptr %9, align 4, !tbaa !4
  ret void

.lr.ph:                                           ; preds = %.lr.ph.preheader73, %.lr.ph
  %.038 = phi i64 [ %60, %.lr.ph ], [ %.038.ph, %.lr.ph.preheader73 ]
  %.03037 = phi float [ %59, %.lr.ph ], [ %.03037.ph, %.lr.ph.preheader73 ]
  %.03136 = phi float [ %55, %.lr.ph ], [ %.03136.ph, %.lr.ph.preheader73 ]
  %.03235 = phi float [ %51, %.lr.ph ], [ %.03235.ph, %.lr.ph.preheader73 ]
  %.03334 = phi float [ %47, %.lr.ph ], [ %.03334.ph, %.lr.ph.preheader73 ]
  %42 = getelementptr inbounds nuw float, ptr %0, i64 %.038
  %43 = load float, ptr %42, align 4, !tbaa !4
  %44 = getelementptr inbounds nuw float, ptr %1, i64 %.038
  %45 = load float, ptr %44, align 4, !tbaa !4
  %46 = fmul fast float %45, %43
  %47 = fadd fast float %46, %.03334
  %48 = getelementptr inbounds nuw float, ptr %2, i64 %.038
  %49 = load float, ptr %48, align 4, !tbaa !4
  %50 = fmul fast float %49, %43
  %51 = fadd fast float %50, %.03235
  %52 = getelementptr inbounds nuw float, ptr %3, i64 %.038
  %53 = load float, ptr %52, align 4, !tbaa !4
  %54 = fmul fast float %53, %43
  %55 = fadd fast float %54, %.03136
  %56 = getelementptr inbounds nuw float, ptr %4, i64 %.038
  %57 = load float, ptr %56, align 4, !tbaa !4
  %58 = fmul fast float %57, %43
  %59 = fadd fast float %58, %.03037
  %60 = add nuw i64 %.038, 1
  %exitcond.not = icmp eq i64 %60, %5
  br i1 %exitcond.not, label %._crit_edge, label %.lr.ph, !llvm.loop !35
}